target datalayout = "e-m:e-p270:32:32-p271:32:32-p272:64:64-i64:64-i128:128-f80:128-n8:16:32:64-S128"
target triple = "x86_64-pc-linux-gnu"

%struct.cube = type { i8, i8, i16, i16, i16, ptr, ptr, ptr, ptr }

; Function Attrs: nounwind uwtable
define i32 @CountLiterals() #0 {
  %1 = alloca ptr, align 8
  %2 = alloca i32, align 4
  call void @llvm.lifetime.start.p0(i64 8, ptr %1) #5
  call void @llvm.lifetime.start.p0(i64 4, ptr %2) #5
  store i32 0, ptr %2, align 4, !tbaa !3
  %3 = call ptr (...) @IterCubeSetStart()
  store ptr %3, ptr %1, align 8, !tbaa !7
  br label %4

4:                                                ; preds = %14, %0
  %5 = load ptr, ptr %1, align 8, !tbaa !7
  %6 = icmp ne ptr %5, null
  br i1 %6, label %7, label %16

7:                                                ; preds = %4
  %8 = load ptr, ptr %1, align 8, !tbaa !7
  %9 = getelementptr inbounds nuw %struct.cube, ptr %8, i32 0, i32 2
  %10 = load i16, ptr %9, align 2, !tbaa !10
  %11 = sext i16 %10 to i32
  %12 = load i32, ptr %2, align 4, !tbaa !3
  %13 = add nsw i32 %12, %11
  store i32 %13, ptr %2, align 4, !tbaa !3
  br label %14

14:                                               ; preds = %7
  %15 = call ptr (...) @IterCubeSetNext()
  store ptr %15, ptr %1, align 8, !tbaa !7
  br label %4, !llvm.loop !14

16:                                               ; preds = %4
  %17 = load i32, ptr %2, align 4, !tbaa !3
  call void @llvm.lifetime.end.p0(i64 4, ptr %2) #5
  call void @llvm.lifetime.end.p0(i64 8, ptr %1) #5
  ret i32 %17
}