; Function Attrs: nounwind uwtable
define i32 @CountLiterals() local_unnamed_addr #0 {
  %1 = tail call ptr (...) @IterCubeSetStart() #6
  %.not4 = icmp eq ptr %1, null
  br i1 %.not4, label %._crit_edge, label %.lr.ph

.lr.ph:                                           ; preds = %0, %.lr.ph
  %.06 = phi i32 [ %5, %.lr.ph ], [ 0, %0 ]
  %.035 = phi ptr [ %6, %.lr.ph ], [ %1, %0 ]
  %2 = getelementptr inbounds nuw i8, ptr %.035, i64 2
  %3 = load i16, ptr %2, align 2, !tbaa !3
  %4 = sext i16 %3 to i32
  %5 = add nsw i32 %.06, %4
  %6 = tail call ptr (...) @IterCubeSetNext() #6
  %.not = icmp eq ptr %6, null
  br i1 %.not, label %._crit_edge, label %.lr.ph, !llvm.loop !11

._crit_edge:                                      ; preds = %.lr.ph, %0
  %.0.lcssa = phi i32 [ 0, %0 ], [ %5, %.lr.ph ]
  ret i32 %.0.lcssa
}